target datalayout = "e-m:e-p270:32:32-p271:32:32-p272:64:64-i64:64-i128:128-f80:128-n8:16:32:64-S128"
target triple = "x86_64-pc-linux-gnu"

%struct.SDL_AtomicInt = type { i32 }
%struct.SDL_AudioDevice = type { ptr, ptr, %struct.SDL_AtomicInt, ptr, ptr, ptr, ptr, ptr, ptr, ptr, i32, ptr, %struct.SDL_AudioSpec, i32, ptr, %struct.SDL_AudioSpec, i32, i32, %struct.SDL_AtomicInt, %struct.SDL_AtomicInt, i8, i8, ptr, ptr, ptr, i32, ptr, i8, ptr, ptr }
%struct.SDL_AudioSpec = type { i32, i32, i32 }
%struct.SDL_PrivateAudioData = type { ptr, ptr }

@ALSA_snd_pcm_start = internal global ptr null, align 8

; Function Attrs: nounwind uwtable
define internal void @ALSA_ThreadInit(ptr noundef %0) #0 {
  %2 = alloca ptr, align 8
  store ptr %0, ptr %2, align 8
  %3 = load ptr, ptr %2, align 8
  %4 = getelementptr inbounds nuw %struct.SDL_AudioDevice, ptr %3, i32 0, i32 20
  %5 = load i8, ptr %4, align 4, !range !3, !noundef !4
  %6 = trunc i8 %5 to i1
  %7 = select i1 %6, i32 2, i32 3
  %8 = call zeroext i1 @SDL_SetCurrentThreadPriority_REAL(i32 noundef %7)
  %9 = load ptr, ptr @ALSA_snd_pcm_start, align 8
  %10 = load ptr, ptr %2, align 8
  %11 = getelementptr inbounds nuw %struct.SDL_AudioDevice, ptr %10, i32 0, i32 28
  %12 = load ptr, ptr %11, align 8
  %13 = getelementptr inbounds nuw %struct.SDL_PrivateAudioData, ptr %12, i32 0, i32 0
  %14 = load ptr, ptr %13, align 8
  %15 = call i32 %9(ptr noundef %14)
  ret void
}