; Function Attrs: nounwind uwtable
define internal void @ALSA_ThreadInit(ptr noundef readonly captures(none) %0) #0 {
  %2 = getelementptr inbounds nuw i8, ptr %0, i64 148
  %3 = load i8, ptr %2, align 4, !range !6, !noundef !7
  %4 = trunc nuw i8 %3 to i1
  %5 = select i1 %4, i32 2, i32 3
  %6 = tail call zeroext i1 @SDL_SetCurrentThreadPriority_REAL(i32 noundef %5) #8
  %7 = load ptr, ptr @ALSA_snd_pcm_start, align 8
  %8 = getelementptr inbounds nuw i8, ptr %0, i64 200
  %9 = load ptr, ptr %8, align 8
  %10 = load ptr, ptr %9, align 8
  %11 = tail call i32 %7(ptr noundef %10) #8
  ret void
}